; ModuleID = '29/1947.c'
source_filename = "29/1947.c"
target datalayout = "e-m:e-p270:32:32-p271:32:32-p272:64:64-i64:64-f80:128-n8:16:32:64-S128"
target triple = "x86_64-pc-linux-gnu"

@.str = private unnamed_addr constant [4 x i8] c"%d\0A\00", align 1
@.str.1 = private unnamed_addr constant [3 x i8] c"%d\00", align 1
@.str.2 = private unnamed_addr constant [7 x i8] c"%.3lf\0A\00", align 1

; Function Attrs: noinline nounwind uwtable
define dso_local i32 @main() #0 {
  %1 = alloca i32, align 4
  %2 = alloca i32, align 4
  %3 = alloca i32, align 4
  %4 = alloca i32, align 4
  %5 = alloca i32, align 4
  %6 = alloca float, align 4
  store i32 0, i32* %1, align 4
  store float 0.000000e+00, float* %6, align 4
  %7 = call i32 (i8*, ...) @__isoc99_scanf(i8* getelementptr inbounds ([4 x i8], [4 x i8]* @.str, i64 0, i64 0), i32* %4)
  store i32 0, i32* %5, align 4
  br label %8

8:                                                ; preds = %35, %0
  %9 = load i32, i32* %5, align 4
  %10 = load i32, i32* %4, align 4
  %11 = icmp slt i32 %9, %10
  br i1 %11, label %12, label %38

12:                                               ; preds = %8
  store float 0.000000e+00, float* %6, align 4
  %13 = call i32 (i8*, ...) @__isoc99_scanf(i8* getelementptr inbounds ([3 x i8], [3 x i8]* @.str.1, i64 0, i64 0), i32* %3)
  store i32 0, i32* %2, align 4
  br label %14

14:                                               ; preds = %28, %12
  %15 = load i32, i32* %2, align 4
  %16 = load i32, i32* %3, align 4
  %17 = icmp slt i32 %15, %16
  br i1 %17, label %18, label %31

18:                                               ; preds = %14
  %19 = load float, float* %6, align 4
  %20 = load i32, i32* %2, align 4
  %21 = add nsw i32 %20, 3
  %22 = call float @f(i32 %21)
  %23 = load i32, i32* %2, align 4
  %24 = add nsw i32 %23, 2
  %25 = call float @f(i32 %24)
  %26 = fdiv float %22, %25
  %27 = fadd float %19, %26
  store float %27, float* %6, align 4
  br label %28

28:                                               ; preds = %18
  %29 = load i32, i32* %2, align 4
  %30 = add nsw i32 %29, 1
  store i32 %30, i32* %2, align 4
  br label %14

31:                                               ; preds = %14
  %32 = load float, float* %6, align 4
  %33 = fpext float %32 to double
  %34 = call i32 (i8*, ...) @printf(i8* getelementptr inbounds ([7 x i8], [7 x i8]* @.str.2, i64 0, i64 0), double %33)
  br label %35

35:                                               ; preds = %31
  %36 = load i32, i32* %5, align 4
  %37 = add nsw i32 %36, 1
  store i32 %37, i32* %5, align 4
  br label %8

38:                                               ; preds = %8
  ret i32 0
}

declare dso_local i32 @__isoc99_scanf(i8*, ...) #1

; Function Attrs: noinline nounwind uwtable
define dso_local float @f(i32 %0) #0 {
  %2 = alloca i32, align 4
  %3 = alloca i32, align 4
  store i32 %0, i32* %2, align 4
  %4 = load i32, i32* %2, align 4
  %5 = icmp eq i32 %4, 1
  br i1 %5, label %9, label %6

6:                                                ; preds = %1
  %7 = load i32, i32* %2, align 4
  %8 = icmp eq i32 %7, 2
  br i1 %8, label %9, label %10

9:                                                ; preds = %6, %1
  store i32 1, i32* %3, align 4
  br label %19

10:                                               ; preds = %6
  %11 = load i32, i32* %2, align 4
  %12 = sub nsw i32 %11, 1
  %13 = call float @f(i32 %12)
  %14 = load i32, i32* %2, align 4
  %15 = sub nsw i32 %14, 2
  %16 = call float @f(i32 %15)
  %17 = fadd float %13, %16
  %18 = fptosi float %17 to i32
  store i32 %18, i32* %3, align 4
  br label %19

19:                                               ; preds = %10, %9
  %20 = load i32, i32* %3, align 4
  %21 = sitofp i32 %20 to float
  ret float %21
}

declare dso_local i32 @printf(i8*, ...) #1


!llvm.module.flags = !{!0}
!llvm.ident = !{!1}

!0 = !{i32 1, !"wchar_size", i32 4}
!1 = !{!"clang version 10.0.0-4ubuntu1 "}
