; ModuleID = 'source-C-CXX/28/1947.c'
source_filename = "source-C-CXX/28/1947.c"
target datalayout = "e-m:e-p270:32:32-p271:32:32-p272:64:64-i64:64-f80:128-n8:16:32:64-S128"
target triple = "x86_64-pc-linux-gnu"

@.str = private unnamed_addr constant [4 x i8] c"%d\0A\00", align 1
@.str.1 = private unnamed_addr constant [3 x i8] c"%d\00", align 1
@.str.2 = private unnamed_addr constant [7 x i8] c"%.3lf\0A\00", align 1

; Function Attrs: nofree nounwind sspstrong uwtable
define dso_local i32 @main() local_unnamed_addr #0 {
  %1 = alloca i32, align 4
  %2 = alloca i32, align 4
  %3 = bitcast i32* %1 to i8*
  call void @llvm.lifetime.start.p0i8(i64 4, i8* nonnull %3) #4
  %4 = bitcast i32* %2 to i8*
  call void @llvm.lifetime.start.p0i8(i64 4, i8* nonnull %4) #4
  %5 = call i32 (i8*, ...) @__isoc99_scanf(i8* getelementptr inbounds ([4 x i8], [4 x i8]* @.str, i64 0, i64 0), i32* nonnull %2)
  %6 = load i32, i32* %2, align 4, !tbaa !5
  %7 = icmp sgt i32 %6, 0
  br i1 %7, label %8, label %31

8:                                                ; preds = %0, %24
  %9 = phi i32 [ %28, %24 ], [ 0, %0 ]
  %10 = call i32 (i8*, ...) @__isoc99_scanf(i8* getelementptr inbounds ([3 x i8], [3 x i8]* @.str.1, i64 0, i64 0), i32* nonnull %1)
  %11 = load i32, i32* %1, align 4, !tbaa !5
  %12 = icmp sgt i32 %11, 0
  br i1 %12, label %13, label %24

13:                                               ; preds = %8, %13
  %14 = phi float [ %21, %13 ], [ 0.000000e+00, %8 ]
  %15 = phi i32 [ %22, %13 ], [ 0, %8 ]
  %16 = add nuw nsw i32 %15, 3
  %17 = call float @f(i32 %16)
  %18 = add nuw nsw i32 %15, 2
  %19 = call float @f(i32 %18)
  %20 = fdiv float %17, %19
  %21 = fadd float %14, %20
  %22 = add nuw nsw i32 %15, 1
  %23 = icmp eq i32 %22, %11
  br i1 %23, label %24, label %13, !llvm.loop !9

24:                                               ; preds = %13, %8
  %25 = phi float [ 0.000000e+00, %8 ], [ %21, %13 ]
  %26 = fpext float %25 to double
  %27 = call i32 (i8*, ...) @printf(i8* nonnull dereferenceable(1) getelementptr inbounds ([7 x i8], [7 x i8]* @.str.2, i64 0, i64 0), double %26)
  %28 = add nuw nsw i32 %9, 1
  %29 = load i32, i32* %2, align 4, !tbaa !5
  %30 = icmp slt i32 %28, %29
  br i1 %30, label %8, label %31, !llvm.loop !11

31:                                               ; preds = %24, %0
  call void @llvm.lifetime.end.p0i8(i64 4, i8* nonnull %4) #4
  call void @llvm.lifetime.end.p0i8(i64 4, i8* nonnull %3) #4
  ret i32 0
}

; Function Attrs: argmemonly mustprogress nofree nosync nounwind willreturn
declare void @llvm.lifetime.start.p0i8(i64 immarg, i8* nocapture) #1

; Function Attrs: nofree nounwind
declare noundef i32 @__isoc99_scanf(i8* nocapture noundef readonly, ...) local_unnamed_addr #2

; Function Attrs: nofree nosync nounwind readnone sspstrong uwtable
define dso_local float @f(i32 %0) local_unnamed_addr #3 {
  %2 = add i32 %0, -1
  %3 = icmp ult i32 %2, 2
  br i1 %3, label %4, label %6

4:                                                ; preds = %1, %6
  %5 = phi float [ %12, %6 ], [ 1.000000e+00, %1 ]
  ret float %5

6:                                                ; preds = %1
  %7 = tail call float @f(i32 %2)
  %8 = add nsw i32 %0, -2
  %9 = tail call float @f(i32 %8)
  %10 = fadd float %7, %9
  %11 = fptosi float %10 to i32
  %12 = sitofp i32 %11 to float
  br label %4
}

; Function Attrs: nofree nounwind
declare noundef i32 @printf(i8* nocapture noundef readonly, ...) local_unnamed_addr #2

; Function Attrs: argmemonly mustprogress nofree nosync nounwind willreturn
declare void @llvm.lifetime.end.p0i8(i64 immarg, i8* nocapture) #1


!llvm.module.flags = !{!0, !1, !2, !3}
!llvm.ident = !{!4}

!0 = !{i32 1, !"wchar_size", i32 4}
!1 = !{i32 7, !"PIC Level", i32 2}
!2 = !{i32 7, !"PIE Level", i32 2}
!3 = !{i32 7, !"uwtable", i32 1}
!4 = !{!"clang version 13.0.0"}
!5 = !{!6, !6, i64 0}
!6 = !{!"int", !7, i64 0}
!7 = !{!"omnipotent char", !8, i64 0}
!8 = !{!"Simple C/C++ TBAA"}
!9 = distinct !{!9, !10}
!10 = !{!"llvm.loop.mustprogress"}
!11 = distinct !{!11, !10}
